target datalayout = "e-m:e-p270:32:32-p271:32:32-p272:64:64-i64:64-i128:128-f80:128-n8:16:32:64-S128"
target triple = "x86_64-pc-linux-gnu"

%struct.jpeg_compress_struct = type { ptr, ptr, ptr, ptr, i32, i32, ptr, i32, i32, i32, i32, double, i32, i32, i32, ptr, [4 x ptr], [4 x ptr], [4 x ptr], [16 x i8], [16 x i8], [16 x i8], i32, ptr, i32, i32, i32, i32, i32, i32, i32, i32, i32, i8, i8, i8, i16, i16, i32, i32, i32, i32, i32, i32, i32, [4 x ptr], i32, i32, i32, [10 x i32], i32, i32, i32, i32, ptr, ptr, ptr, ptr, ptr, ptr, ptr, ptr, ptr, ptr, i32 }
%struct.jpeg_memory_mgr = type { ptr, ptr, ptr, ptr, ptr, ptr, ptr, ptr, ptr, ptr, ptr, i64, i64 }
%struct.my_downsampler = type { %struct.jpeg_downsampler, [10 x ptr] }
%struct.jpeg_downsampler = type { ptr, ptr, i32 }
%struct.jpeg_error_mgr = type { ptr, ptr, ptr, ptr, ptr, i32, %union.anon, i32, i64, ptr, i32, ptr, i32, i32 }
%union.anon = type { [8 x i32], [48 x i8] }
%struct.jpeg_component_info = type { i32, i32, i32, i32, i32, i32, i32, i32, i32, i32, i32, i32, i32, i32, i32, i32, i32, i32, i32, ptr, ptr }

; Function Attrs: nounwind uwtable
define hidden void @jIDownsampler(ptr noundef %0) #0 {
  %2 = alloca ptr, align 8
  %3 = alloca ptr, align 8
  %4 = alloca i32, align 4
  %5 = alloca ptr, align 8
  %6 = alloca i32, align 4
  store ptr %0, ptr %2, align 8
  store i32 1, ptr %6, align 4
  %7 = load ptr, ptr %2, align 8
  %8 = getelementptr inbounds %struct.jpeg_compress_struct, ptr %7, i32 0, i32 1
  %9 = load ptr, ptr %8, align 8
  %10 = getelementptr inbounds %struct.jpeg_memory_mgr, ptr %9, i32 0, i32 0
  %11 = load ptr, ptr %10, align 8
  %12 = load ptr, ptr %2, align 8
  %13 = call ptr %11(ptr noundef %12, i32 noundef 1, i64 noundef 104)
  store ptr %13, ptr %3, align 8
  %14 = load ptr, ptr %3, align 8
  %15 = load ptr, ptr %2, align 8
  %16 = getelementptr inbounds %struct.jpeg_compress_struct, ptr %15, i32 0, i32 60
  store ptr %14, ptr %16, align 8
  %17 = load ptr, ptr %3, align 8
  %18 = getelementptr inbounds %struct.my_downsampler, ptr %17, i32 0, i32 0
  %19 = getelementptr inbounds %struct.jpeg_downsampler, ptr %18, i32 0, i32 0
  store ptr @start_pass_downsample, ptr %19, align 8
  %20 = load ptr, ptr %3, align 8
  %21 = getelementptr inbounds %struct.my_downsampler, ptr %20, i32 0, i32 0
  %22 = getelementptr inbounds %struct.jpeg_downsampler, ptr %21, i32 0, i32 1
  store ptr @sep_downsample, ptr %22, align 8
  %23 = load ptr, ptr %3, align 8
  %24 = getelementptr inbounds %struct.my_downsampler, ptr %23, i32 0, i32 0
  %25 = getelementptr inbounds %struct.jpeg_downsampler, ptr %24, i32 0, i32 2
  store i32 0, ptr %25, align 8
  %26 = load ptr, ptr %2, align 8
  %27 = getelementptr inbounds %struct.jpeg_compress_struct, ptr %26, i32 0, i32 27
  %28 = load i32, ptr %27, align 4
  %29 = icmp ne i32 %28, 0
  br i1 %29, label %30, label %41

30:                                               ; preds = %1
  %31 = load ptr, ptr %2, align 8
  %32 = getelementptr inbounds %struct.jpeg_compress_struct, ptr %31, i32 0, i32 0
  %33 = load ptr, ptr %32, align 8
  %34 = getelementptr inbounds %struct.jpeg_error_mgr, ptr %33, i32 0, i32 5
  store i32 25, ptr %34, align 8
  %35 = load ptr, ptr %2, align 8
  %36 = getelementptr inbounds %struct.jpeg_compress_struct, ptr %35, i32 0, i32 0
  %37 = load ptr, ptr %36, align 8
  %38 = getelementptr inbounds %struct.jpeg_error_mgr, ptr %37, i32 0, i32 0
  %39 = load ptr, ptr %38, align 8
  %40 = load ptr, ptr %2, align 8
  call void %39(ptr noundef %40)
  br label %41

41:                                               ; preds = %30, %1
  store i32 0, ptr %4, align 4
  %42 = load ptr, ptr %2, align 8
  %43 = getelementptr inbounds %struct.jpeg_compress_struct, ptr %42, i32 0, i32 15
  %44 = load ptr, ptr %43, align 8
  store ptr %44, ptr %5, align 8
  br label %45

45:                                               ; preds = %189, %41
  %46 = load i32, ptr %4, align 4
  %47 = load ptr, ptr %2, align 8
  %48 = getelementptr inbounds %struct.jpeg_compress_struct, ptr %47, i32 0, i32 13
  %49 = load i32, ptr %48, align 4
  %50 = icmp slt i32 %46, %49
  br i1 %50, label %51, label %194

51:                                               ; preds = %45
  %52 = load ptr, ptr %5, align 8
  %53 = getelementptr inbounds %struct.jpeg_component_info, ptr %52, i32 0, i32 2
  %54 = load i32, ptr %53, align 8
  %55 = load ptr, ptr %2, align 8
  %56 = getelementptr inbounds %struct.jpeg_compress_struct, ptr %55, i32 0, i32 41
  %57 = load i32, ptr %56, align 8
  %58 = icmp eq i32 %54, %57
  br i1 %58, label %59, label %88

59:                                               ; preds = %51
  %60 = load ptr, ptr %5, align 8
  %61 = getelementptr inbounds %struct.jpeg_component_info, ptr %60, i32 0, i32 3
  %62 = load i32, ptr %61, align 4
  %63 = load ptr, ptr %2, align 8
  %64 = getelementptr inbounds %struct.jpeg_compress_struct, ptr %63, i32 0, i32 42
  %65 = load i32, ptr %64, align 4
  %66 = icmp eq i32 %62, %65
  br i1 %66, label %67, label %88

67:                                               ; preds = %59
  %68 = load ptr, ptr %2, align 8
  %69 = getelementptr inbounds %struct.jpeg_compress_struct, ptr %68, i32 0, i32 28
  %70 = load i32, ptr %69, align 8
  %71 = icmp ne i32 %70, 0
  br i1 %71, label %72, label %81

72:                                               ; preds = %67
  %73 = load ptr, ptr %3, align 8
  %74 = getelementptr inbounds %struct.my_downsampler, ptr %73, i32 0, i32 1
  %75 = load i32, ptr %4, align 4
  %76 = sext i32 %75 to i64
  %77 = getelementptr inbounds [10 x ptr], ptr %74, i64 0, i64 %76
  store ptr @fullsize_smooth_downsample, ptr %77, align 8
  %78 = load ptr, ptr %3, align 8
  %79 = getelementptr inbounds %struct.my_downsampler, ptr %78, i32 0, i32 0
  %80 = getelementptr inbounds %struct.jpeg_downsampler, ptr %79, i32 0, i32 2
  store i32 1, ptr %80, align 8
  br label %87

81:                                               ; preds = %67
  %82 = load ptr, ptr %3, align 8
  %83 = getelementptr inbounds %struct.my_downsampler, ptr %82, i32 0, i32 1
  %84 = load i32, ptr %4, align 4
  %85 = sext i32 %84 to i64
  %86 = getelementptr inbounds [10 x ptr], ptr %83, i64 0, i64 %85
  store ptr @fullsize_downsample, ptr %86, align 8
  br label %87

87:                                               ; preds = %81, %72
  br label %188

88:                                               ; preds = %59, %51
  %89 = load ptr, ptr %5, align 8
  %90 = getelementptr inbounds %struct.jpeg_component_info, ptr %89, i32 0, i32 2
  %91 = load i32, ptr %90, align 8
  %92 = mul nsw i32 %91, 2
  %93 = load ptr, ptr %2, align 8
  %94 = getelementptr inbounds %struct.jpeg_compress_struct, ptr %93, i32 0, i32 41
  %95 = load i32, ptr %94, align 8
  %96 = icmp eq i32 %92, %95
  br i1 %96, label %97, label %111

97:                                               ; preds = %88
  %98 = load ptr, ptr %5, align 8
  %99 = getelementptr inbounds %struct.jpeg_component_info, ptr %98, i32 0, i32 3
  %100 = load i32, ptr %99, align 4
  %101 = load ptr, ptr %2, align 8
  %102 = getelementptr inbounds %struct.jpeg_compress_struct, ptr %101, i32 0, i32 42
  %103 = load i32, ptr %102, align 4
  %104 = icmp eq i32 %100, %103
  br i1 %104, label %105, label %111

105:                                              ; preds = %97
  store i32 0, ptr %6, align 4
  %106 = load ptr, ptr %3, align 8
  %107 = getelementptr inbounds %struct.my_downsampler, ptr %106, i32 0, i32 1
  %108 = load i32, ptr %4, align 4
  %109 = sext i32 %108 to i64
  %110 = getelementptr inbounds [10 x ptr], ptr %107, i64 0, i64 %109
  store ptr @h2v1_downsample, ptr %110, align 8
  br label %187

111:                                              ; preds = %97, %88
  %112 = load ptr, ptr %5, align 8
  %113 = getelementptr inbounds %struct.jpeg_component_info, ptr %112, i32 0, i32 2
  %114 = load i32, ptr %113, align 8
  %115 = mul nsw i32 %114, 2
  %116 = load ptr, ptr %2, align 8
  %117 = getelementptr inbounds %struct.jpeg_compress_struct, ptr %116, i32 0, i32 41
  %118 = load i32, ptr %117, align 8
  %119 = icmp eq i32 %115, %118
  br i1 %119, label %120, label %150

120:                                              ; preds = %111
  %121 = load ptr, ptr %5, align 8
  %122 = getelementptr inbounds %struct.jpeg_component_info, ptr %121, i32 0, i32 3
  %123 = load i32, ptr %122, align 4
  %124 = mul nsw i32 %123, 2
  %125 = load ptr, ptr %2, align 8
  %126 = getelementptr inbounds %struct.jpeg_compress_struct, ptr %125, i32 0, i32 42
  %127 = load i32, ptr %126, align 4
  %128 = icmp eq i32 %124, %127
  br i1 %128, label %129, label %150

129:                                              ; preds = %120
  %130 = load ptr, ptr %2, align 8
  %131 = getelementptr inbounds %struct.jpeg_compress_struct, ptr %130, i32 0, i32 28
  %132 = load i32, ptr %131, align 8
  %133 = icmp ne i32 %132, 0
  br i1 %133, label %134, label %143

134:                                              ; preds = %129
  %135 = load ptr, ptr %3, align 8
  %136 = getelementptr inbounds %struct.my_downsampler, ptr %135, i32 0, i32 1
  %137 = load i32, ptr %4, align 4
  %138 = sext i32 %137 to i64
  %139 = getelementptr inbounds [10 x ptr], ptr %136, i64 0, i64 %138
  store ptr @h2v2_smooth_downsample, ptr %139, align 8
  %140 = load ptr, ptr %3, align 8
  %141 = getelementptr inbounds %struct.my_downsampler, ptr %140, i32 0, i32 0
  %142 = getelementptr inbounds %struct.jpeg_downsampler, ptr %141, i32 0, i32 2
  store i32 1, ptr %142, align 8
  br label %149

143:                                              ; preds = %129
  %144 = load ptr, ptr %3, align 8
  %145 = getelementptr inbounds %struct.my_downsampler, ptr %144, i32 0, i32 1
  %146 = load i32, ptr %4, align 4
  %147 = sext i32 %146 to i64
  %148 = getelementptr inbounds [10 x ptr], ptr %145, i64 0, i64 %147
  store ptr @h2v2_downsample, ptr %148, align 8
  br label %149

149:                                              ; preds = %143, %134
  br label %186

150:                                              ; preds = %120, %111
  %151 = load ptr, ptr %2, align 8
  %152 = getelementptr inbounds %struct.jpeg_compress_struct, ptr %151, i32 0, i32 41
  %153 = load i32, ptr %152, align 8
  %154 = load ptr, ptr %5, align 8
  %155 = getelementptr inbounds %struct.jpeg_component_info, ptr %154, i32 0, i32 2
  %156 = load i32, ptr %155, align 8
  %157 = srem i32 %153, %156
  %158 = icmp eq i32 %157, 0
  br i1 %158, label %159, label %174

159:                                              ; preds = %150
  %160 = load ptr, ptr %2, align 8
  %161 = getelementptr inbounds %struct.jpeg_compress_struct, ptr %160, i32 0, i32 42
  %162 = load i32, ptr %161, align 4
  %163 = load ptr, ptr %5, align 8
  %164 = getelementptr inbounds %struct.jpeg_component_info, ptr %163, i32 0, i32 3
  %165 = load i32, ptr %164, align 4
  %166 = srem i32 %162, %165
  %167 = icmp eq i32 %166, 0
  br i1 %167, label %168, label %174

168:                                              ; preds = %159
  store i32 0, ptr %6, align 4
  %169 = load ptr, ptr %3, align 8
  %170 = getelementptr inbounds %struct.my_downsampler, ptr %169, i32 0, i32 1
  %171 = load i32, ptr %4, align 4
  %172 = sext i32 %171 to i64
  %173 = getelementptr inbounds [10 x ptr], ptr %170, i64 0, i64 %172
  store ptr @int_downsample, ptr %173, align 8
  br label %185

174:                                              ; preds = %159, %150
  %175 = load ptr, ptr %2, align 8
  %176 = getelementptr inbounds %struct.jpeg_compress_struct, ptr %175, i32 0, i32 0
  %177 = load ptr, ptr %176, align 8
  %178 = getelementptr inbounds %struct.jpeg_error_mgr, ptr %177, i32 0, i32 5
  store i32 38, ptr %178, align 8
  %179 = load ptr, ptr %2, align 8
  %180 = getelementptr inbounds %struct.jpeg_compress_struct, ptr %179, i32 0, i32 0
  %181 = load ptr, ptr %180, align 8
  %182 = getelementptr inbounds %struct.jpeg_error_mgr, ptr %181, i32 0, i32 0
  %183 = load ptr, ptr %182, align 8
  %184 = load ptr, ptr %2, align 8
  call void %183(ptr noundef %184)
  br label %185

185:                                              ; preds = %174, %168
  br label %186

186:                                              ; preds = %185, %149
  br label %187

187:                                              ; preds = %186, %105
  br label %188

188:                                              ; preds = %187, %87
  br label %189

189:                                              ; preds = %188
  %190 = load i32, ptr %4, align 4
  %191 = add nsw i32 %190, 1
  store i32 %191, ptr %4, align 4
  %192 = load ptr, ptr %5, align 8
  %193 = getelementptr inbounds %struct.jpeg_component_info, ptr %192, i32 1
  store ptr %193, ptr %5, align 8
  br label %45, !llvm.loop !6

194:                                              ; preds = %45
  %195 = load ptr, ptr %2, align 8
  %196 = getelementptr inbounds %struct.jpeg_compress_struct, ptr %195, i32 0, i32 28
  %197 = load i32, ptr %196, align 8
  %198 = icmp ne i32 %197, 0
  br i1 %198, label %199, label %213

199:                                              ; preds = %194
  %200 = load i32, ptr %6, align 4
  %201 = icmp ne i32 %200, 0
  br i1 %201, label %213, label %202

202:                                              ; preds = %199
  %203 = load ptr, ptr %2, align 8
  %204 = getelementptr inbounds %struct.jpeg_compress_struct, ptr %203, i32 0, i32 0
  %205 = load ptr, ptr %204, align 8
  %206 = getelementptr inbounds %struct.jpeg_error_mgr, ptr %205, i32 0, i32 5
  store i32 99, ptr %206, align 8
  %207 = load ptr, ptr %2, align 8
  %208 = getelementptr inbounds %struct.jpeg_compress_struct, ptr %207, i32 0, i32 0
  %209 = load ptr, ptr %208, align 8
  %210 = getelementptr inbounds %struct.jpeg_error_mgr, ptr %209, i32 0, i32 1
  %211 = load ptr, ptr %210, align 8
  %212 = load ptr, ptr %2, align 8
  call void %211(ptr noundef %212, i32 noundef 0)
  br label %213

213:                                              ; preds = %202, %199, %194
  ret void
}