; Function Attrs: nounwind uwtable
define hidden void @jIDownsampler(ptr noundef %0) local_unnamed_addr #0 {
  %2 = getelementptr inbounds i8, ptr %0, i64 8
  %3 = load ptr, ptr %2, align 8
  %4 = load ptr, ptr %3, align 8
  %5 = tail call ptr %4(ptr noundef %0, i32 noundef 1, i64 noundef 104) #5
  %6 = getelementptr inbounds i8, ptr %0, i64 480
  store ptr %5, ptr %6, align 8
  store ptr @start_pass_downsample, ptr %5, align 8
  %7 = getelementptr inbounds i8, ptr %5, i64 8
  store ptr @sep_downsample, ptr %7, align 8
  %8 = getelementptr inbounds i8, ptr %5, i64 16
  store i32 0, ptr %8, align 8
  %9 = getelementptr inbounds i8, ptr %0, i64 268
  %10 = load i32, ptr %9, align 4
  %.not = icmp eq i32 %10, 0
  br i1 %.not, label %16, label %11

11:                                               ; preds = %1
  %12 = load ptr, ptr %0, align 8
  %13 = getelementptr inbounds i8, ptr %12, i64 40
  store i32 25, ptr %13, align 8
  %14 = load ptr, ptr %0, align 8
  %15 = load ptr, ptr %14, align 8
  tail call void %15(ptr noundef nonnull %0) #5
  br label %16

16:                                               ; preds = %11, %1
  %17 = getelementptr inbounds i8, ptr %0, i64 76
  %18 = load i32, ptr %17, align 4
  %19 = icmp sgt i32 %18, 0
  br i1 %19, label %.lr.ph, label %._crit_edge.thread

.lr.ph:                                           ; preds = %16
  %20 = getelementptr inbounds i8, ptr %0, i64 88
  %21 = load ptr, ptr %20, align 8
  %22 = getelementptr inbounds i8, ptr %0, i64 312
  %23 = getelementptr inbounds i8, ptr %0, i64 316
  %24 = getelementptr inbounds i8, ptr %5, i64 24
  %25 = getelementptr inbounds i8, ptr %0, i64 272
  br label %26

26:                                               ; preds = %.lr.ph, %75
  %indvars.iv = phi i64 [ 0, %.lr.ph ], [ %indvars.iv.next, %75 ]
  %.063 = phi i32 [ 1, %.lr.ph ], [ %.1, %75 ]
  %.05662 = phi ptr [ %21, %.lr.ph ], [ %76, %75 ]
  %27 = getelementptr inbounds i8, ptr %.05662, i64 8
  %28 = load i32, ptr %27, align 8
  %29 = load i32, ptr %22, align 8
  %30 = icmp eq i32 %28, %29
  br i1 %30, label %31, label %41

31:                                               ; preds = %26
  %32 = getelementptr inbounds i8, ptr %.05662, i64 12
  %33 = load i32, ptr %32, align 4
  %34 = load i32, ptr %23, align 4
  %35 = icmp eq i32 %33, %34
  br i1 %35, label %36, label %41

36:                                               ; preds = %31
  %37 = load i32, ptr %25, align 8
  %.not59 = icmp eq i32 %37, 0
  %38 = getelementptr inbounds [10 x ptr], ptr %24, i64 0, i64 %indvars.iv
  br i1 %.not59, label %40, label %39

39:                                               ; preds = %36
  store ptr @fullsize_smooth_downsample, ptr %38, align 8
  store i32 1, ptr %8, align 8
  br label %75

40:                                               ; preds = %36
  store ptr @fullsize_downsample, ptr %38, align 8
  br label %75

41:                                               ; preds = %31, %26
  %42 = shl nsw i32 %28, 1
  %43 = icmp eq i32 %42, %29
  br i1 %43, label %44, label %59

44:                                               ; preds = %41
  %45 = getelementptr inbounds i8, ptr %.05662, i64 12
  %46 = load i32, ptr %45, align 4
  %47 = load i32, ptr %23, align 4
  %48 = icmp eq i32 %46, %47
  br i1 %48, label %49, label %51

49:                                               ; preds = %44
  %50 = getelementptr inbounds [10 x ptr], ptr %24, i64 0, i64 %indvars.iv
  store ptr @h2v1_downsample, ptr %50, align 8
  br label %75

51:                                               ; preds = %44
  %52 = shl nsw i32 %46, 1
  %53 = icmp eq i32 %52, %47
  br i1 %53, label %54, label %59

54:                                               ; preds = %51
  %55 = load i32, ptr %25, align 8
  %.not58 = icmp eq i32 %55, 0
  %56 = getelementptr inbounds [10 x ptr], ptr %24, i64 0, i64 %indvars.iv
  br i1 %.not58, label %58, label %57

57:                                               ; preds = %54
  store ptr @h2v2_smooth_downsample, ptr %56, align 8
  store i32 1, ptr %8, align 8
  br label %75

58:                                               ; preds = %54
  store ptr @h2v2_downsample, ptr %56, align 8
  br label %75

59:                                               ; preds = %41, %51
  %60 = srem i32 %29, %28
  %61 = icmp eq i32 %60, 0
  br i1 %61, label %62, label %70

62:                                               ; preds = %59
  %63 = load i32, ptr %23, align 4
  %64 = getelementptr inbounds i8, ptr %.05662, i64 12
  %65 = load i32, ptr %64, align 4
  %66 = srem i32 %63, %65
  %67 = icmp eq i32 %66, 0
  br i1 %67, label %68, label %70

68:                                               ; preds = %62
  %69 = getelementptr inbounds [10 x ptr], ptr %24, i64 0, i64 %indvars.iv
  store ptr @int_downsample, ptr %69, align 8
  br label %75

70:                                               ; preds = %62, %59
  %71 = load ptr, ptr %0, align 8
  %72 = getelementptr inbounds i8, ptr %71, i64 40
  store i32 38, ptr %72, align 8
  %73 = load ptr, ptr %0, align 8
  %74 = load ptr, ptr %73, align 8
  tail call void %74(ptr noundef nonnull %0) #5
  br label %75

75:                                               ; preds = %40, %39, %58, %57, %70, %68, %49
  %.1 = phi i32 [ %.063, %39 ], [ %.063, %40 ], [ 0, %49 ], [ %.063, %57 ], [ %.063, %58 ], [ 0, %68 ], [ %.063, %70 ]
  %indvars.iv.next = add nuw nsw i64 %indvars.iv, 1
  %76 = getelementptr inbounds i8, ptr %.05662, i64 96
  %77 = load i32, ptr %17, align 4
  %78 = sext i32 %77 to i64
  %79 = icmp slt i64 %indvars.iv.next, %78
  br i1 %79, label %26, label %._crit_edge, !llvm.loop !6

._crit_edge:                                      ; preds = %75
  %80 = icmp ne i32 %.1, 0
  %81 = getelementptr inbounds i8, ptr %0, i64 272
  %82 = load i32, ptr %81, align 8
  %83 = icmp eq i32 %82, 0
  %or.cond = select i1 %83, i1 true, i1 %80
  br i1 %or.cond, label %._crit_edge.thread, label %84

84:                                               ; preds = %._crit_edge
  %85 = load ptr, ptr %0, align 8
  %86 = getelementptr inbounds i8, ptr %85, i64 40
  store i32 99, ptr %86, align 8
  %87 = load ptr, ptr %0, align 8
  %88 = getelementptr inbounds i8, ptr %87, i64 8
  %89 = load ptr, ptr %88, align 8
  tail call void %89(ptr noundef nonnull %0, i32 noundef 0) #5
  br label %._crit_edge.thread

._crit_edge.thread:                               ; preds = %16, %84, %._crit_edge
  ret void
}